target datalayout = "e-m:e-p270:32:32-p271:32:32-p272:64:64-i64:64-i128:128-f80:128-n8:16:32:64-S128"
target triple = "x86_64-pc-linux-gnu"

%struct.lzma_filter = type { i64, ptr }
%struct.anon = type { i64, i64, i8, i8, i8 }

; Function Attrs: nounwind uwtable
define dso_local i32 @lzma_filters_copy(ptr noundef %0, ptr noundef %1, ptr noundef %2) #0 {
  %4 = alloca i32, align 4
  %5 = alloca ptr, align 8
  %6 = alloca ptr, align 8
  %7 = alloca ptr, align 8
  %8 = alloca [5 x %struct.lzma_filter], align 16
  %9 = alloca i32, align 4
  %10 = alloca i64, align 8
  %11 = alloca i64, align 8
  %12 = alloca i32, align 4
  store ptr %0, ptr %5, align 8, !tbaa !4
  store ptr %1, ptr %6, align 8, !tbaa !4
  store ptr %2, ptr %7, align 8, !tbaa !4
  %13 = load ptr, ptr %5, align 8, !tbaa !4
  %14 = icmp eq ptr %13, null
  br i1 %14, label %18, label %15

15:                                               ; preds = %3
  %16 = load ptr, ptr %6, align 8, !tbaa !4
  %17 = icmp eq ptr %16, null
  br i1 %17, label %18, label %19

18:                                               ; preds = %15, %3
  store i32 11, ptr %4, align 4
  br label %136

19:                                               ; preds = %15
  call void @llvm.lifetime.start.p0(i64 80, ptr %8) #4
  call void @llvm.lifetime.start.p0(i64 4, ptr %9) #4
  call void @llvm.lifetime.start.p0(i64 8, ptr %10) #4
  store i64 0, ptr %10, align 8, !tbaa !8
  br label %20

20:                                               ; preds = %107, %19
  %21 = load ptr, ptr %5, align 8, !tbaa !4
  %22 = load i64, ptr %10, align 8, !tbaa !8
  %23 = getelementptr inbounds nuw %struct.lzma_filter, ptr %21, i64 %22
  %24 = getelementptr inbounds nuw %struct.lzma_filter, ptr %23, i32 0, i32 0
  %25 = load i64, ptr %24, align 8, !tbaa !10
  %26 = icmp ne i64 %25, -1
  br i1 %26, label %27, label %110

27:                                               ; preds = %20
  %28 = load i64, ptr %10, align 8, !tbaa !8
  %29 = icmp eq i64 %28, 4
  br i1 %29, label %30, label %31

30:                                               ; preds = %27
  store i32 8, ptr %9, align 4, !tbaa !12
  br label %122

31:                                               ; preds = %27
  %32 = load ptr, ptr %5, align 8, !tbaa !4
  %33 = load i64, ptr %10, align 8, !tbaa !8
  %34 = getelementptr inbounds nuw %struct.lzma_filter, ptr %32, i64 %33
  %35 = getelementptr inbounds nuw %struct.lzma_filter, ptr %34, i32 0, i32 0
  %36 = load i64, ptr %35, align 8, !tbaa !10
  %37 = load i64, ptr %10, align 8, !tbaa !8
  %38 = getelementptr inbounds nuw [5 x %struct.lzma_filter], ptr %8, i64 0, i64 %37
  %39 = getelementptr inbounds nuw %struct.lzma_filter, ptr %38, i32 0, i32 0
  store i64 %36, ptr %39, align 16, !tbaa !10
  %40 = load ptr, ptr %5, align 8, !tbaa !4
  %41 = load i64, ptr %10, align 8, !tbaa !8
  %42 = getelementptr inbounds nuw %struct.lzma_filter, ptr %40, i64 %41
  %43 = getelementptr inbounds nuw %struct.lzma_filter, ptr %42, i32 0, i32 1
  %44 = load ptr, ptr %43, align 8, !tbaa !14
  %45 = icmp eq ptr %44, null
  br i1 %45, label %46, label %50

46:                                               ; preds = %31
  %47 = load i64, ptr %10, align 8, !tbaa !8
  %48 = getelementptr inbounds nuw [5 x %struct.lzma_filter], ptr %8, i64 0, i64 %47
  %49 = getelementptr inbounds nuw %struct.lzma_filter, ptr %48, i32 0, i32 1
  store ptr null, ptr %49, align 8, !tbaa !14
  br label %106

50:                                               ; preds = %31
  call void @llvm.lifetime.start.p0(i64 8, ptr %11) #4
  store i64 0, ptr %11, align 8, !tbaa !8
  br label %51

51:                                               ; preds = %70, %50
  %52 = load ptr, ptr %5, align 8, !tbaa !4
  %53 = load i64, ptr %10, align 8, !tbaa !8
  %54 = getelementptr inbounds nuw %struct.lzma_filter, ptr %52, i64 %53
  %55 = getelementptr inbounds nuw %struct.lzma_filter, ptr %54, i32 0, i32 0
  %56 = load i64, ptr %55, align 8, !tbaa !10
  %57 = load i64, ptr %11, align 8, !tbaa !8
  %58 = getelementptr inbounds nuw [11 x %struct.anon], ptr @features, i64 0, i64 %57
  %59 = getelementptr inbounds nuw %struct.anon, ptr %58, i32 0, i32 0
  %60 = load i64, ptr %59, align 8, !tbaa !15
  %61 = icmp ne i64 %56, %60
  br i1 %61, label %62, label %73

62:                                               ; preds = %51
  %63 = load i64, ptr %11, align 8, !tbaa !8
  %64 = getelementptr inbounds nuw [11 x %struct.anon], ptr @features, i64 0, i64 %63
  %65 = getelementptr inbounds nuw %struct.anon, ptr %64, i32 0, i32 0
  %66 = load i64, ptr %65, align 8, !tbaa !15
  %67 = icmp eq i64 %66, -1
  br i1 %67, label %68, label %69

68:                                               ; preds = %62
  store i32 8, ptr %9, align 4, !tbaa !12
  store i32 5, ptr %12, align 4
  br label %103

69:                                               ; preds = %62
  br label %70

70:                                               ; preds = %69
  %71 = load i64, ptr %11, align 8, !tbaa !8
  %72 = add i64 %71, 1
  store i64 %72, ptr %11, align 8, !tbaa !8
  br label %51, !llvm.loop !18

73:                                               ; preds = %51
  %74 = load i64, ptr %11, align 8, !tbaa !8
  %75 = getelementptr inbounds nuw [11 x %struct.anon], ptr @features, i64 0, i64 %74
  %76 = getelementptr inbounds nuw %struct.anon, ptr %75, i32 0, i32 1
  %77 = load i64, ptr %76, align 8, !tbaa !20
  %78 = load ptr, ptr %7, align 8, !tbaa !4
  %79 = call ptr @lzma_alloc(i64 noundef %77, ptr noundef %78)
  %80 = load i64, ptr %10, align 8, !tbaa !8
  %81 = getelementptr inbounds nuw [5 x %struct.lzma_filter], ptr %8, i64 0, i64 %80
  %82 = getelementptr inbounds nuw %struct.lzma_filter, ptr %81, i32 0, i32 1
  store ptr %79, ptr %82, align 8, !tbaa !14
  %83 = load i64, ptr %10, align 8, !tbaa !8
  %84 = getelementptr inbounds nuw [5 x %struct.lzma_filter], ptr %8, i64 0, i64 %83
  %85 = getelementptr inbounds nuw %struct.lzma_filter, ptr %84, i32 0, i32 1
  %86 = load ptr, ptr %85, align 8, !tbaa !14
  %87 = icmp eq ptr %86, null
  br i1 %87, label %88, label %89

88:                                               ; preds = %73
  store i32 5, ptr %9, align 4, !tbaa !12
  store i32 5, ptr %12, align 4
  br label %103

89:                                               ; preds = %73
  %90 = load i64, ptr %10, align 8, !tbaa !8
  %91 = getelementptr inbounds nuw [5 x %struct.lzma_filter], ptr %8, i64 0, i64 %90
  %92 = getelementptr inbounds nuw %struct.lzma_filter, ptr %91, i32 0, i32 1
  %93 = load ptr, ptr %92, align 8, !tbaa !14
  %94 = load ptr, ptr %5, align 8, !tbaa !4
  %95 = load i64, ptr %10, align 8, !tbaa !8
  %96 = getelementptr inbounds nuw %struct.lzma_filter, ptr %94, i64 %95
  %97 = getelementptr inbounds nuw %struct.lzma_filter, ptr %96, i32 0, i32 1
  %98 = load ptr, ptr %97, align 8, !tbaa !14
  %99 = load i64, ptr %11, align 8, !tbaa !8
  %100 = getelementptr inbounds nuw [11 x %struct.anon], ptr @features, i64 0, i64 %99
  %101 = getelementptr inbounds nuw %struct.anon, ptr %100, i32 0, i32 1
  %102 = load i64, ptr %101, align 8, !tbaa !20
  call void @llvm.memcpy.p0.p0.i64(ptr align 1 %93, ptr align 1 %98, i64 %102, i1 false)
  store i32 0, ptr %12, align 4
  br label %103

103:                                              ; preds = %88, %68, %89
  call void @llvm.lifetime.end.p0(i64 8, ptr %11) #4
  %104 = load i32, ptr %12, align 4
  switch i32 %104, label %135 [
    i32 0, label %105
    i32 5, label %122
  ]

105:                                              ; preds = %103
  br label %106

106:                                              ; preds = %105, %46
  br label %107

107:                                              ; preds = %106
  %108 = load i64, ptr %10, align 8, !tbaa !8
  %109 = add i64 %108, 1
  store i64 %109, ptr %10, align 8, !tbaa !8
  br label %20, !llvm.loop !21

110:                                              ; preds = %20
  %111 = load i64, ptr %10, align 8, !tbaa !8
  %112 = getelementptr inbounds nuw [5 x %struct.lzma_filter], ptr %8, i64 0, i64 %111
  %113 = getelementptr inbounds nuw %struct.lzma_filter, ptr %112, i32 0, i32 0
  store i64 -1, ptr %113, align 16, !tbaa !10
  %114 = load i64, ptr %10, align 8, !tbaa !8
  %115 = getelementptr inbounds nuw [5 x %struct.lzma_filter], ptr %8, i64 0, i64 %114
  %116 = getelementptr inbounds nuw %struct.lzma_filter, ptr %115, i32 0, i32 1
  store ptr null, ptr %116, align 8, !tbaa !14
  %117 = load ptr, ptr %6, align 8, !tbaa !4
  %118 = getelementptr inbounds [5 x %struct.lzma_filter], ptr %8, i64 0, i64 0
  %119 = load i64, ptr %10, align 8, !tbaa !8
  %120 = add i64 %119, 1
  %121 = mul i64 %120, 16
  call void @llvm.memcpy.p0.p0.i64(ptr align 8 %117, ptr align 16 %118, i64 %121, i1 false)
  store i32 0, ptr %4, align 4
  store i32 1, ptr %12, align 4
  br label %135

122:                                              ; preds = %103, %30
  br label %123

123:                                              ; preds = %127, %122
  %124 = load i64, ptr %10, align 8, !tbaa !8
  %125 = add i64 %124, -1
  store i64 %125, ptr %10, align 8, !tbaa !8
  %126 = icmp ugt i64 %124, 0
  br i1 %126, label %127, label %133

127:                                              ; preds = %123
  %128 = load i64, ptr %10, align 8, !tbaa !8
  %129 = getelementptr inbounds nuw [5 x %struct.lzma_filter], ptr %8, i64 0, i64 %128
  %130 = getelementptr inbounds nuw %struct.lzma_filter, ptr %129, i32 0, i32 1
  %131 = load ptr, ptr %130, align 8, !tbaa !14
  %132 = load ptr, ptr %7, align 8, !tbaa !4
  call void @lzma_free(ptr noundef %131, ptr noundef %132)
  br label %123, !llvm.loop !22

133:                                              ; preds = %123
  %134 = load i32, ptr %9, align 4, !tbaa !12
  store i32 %134, ptr %4, align 4
  store i32 1, ptr %12, align 4
  br label %135

135:                                              ; preds = %133, %110, %103
  call void @llvm.lifetime.end.p0(i64 8, ptr %10) #4
  call void @llvm.lifetime.end.p0(i64 4, ptr %9) #4
  call void @llvm.lifetime.end.p0(i64 80, ptr %8) #4
  br label %136

136:                                              ; preds = %135, %18
  %137 = load i32, ptr %4, align 4
  ret i32 %137
}