; Function Attrs: nounwind uwtable
define dso_local range(i32 0, 12) i32 @lzma_filters_copy(ptr noundef readonly %0, ptr noundef writeonly %1, ptr noundef %2) local_unnamed_addr #0 {
  %4 = alloca [5 x %struct.lzma_filter], align 16
  %5 = icmp eq ptr %0, null
  %6 = icmp eq ptr %1, null
  %or.cond = or i1 %5, %6
  br i1 %or.cond, label %40, label %7

7:                                                ; preds = %3
  call void @llvm.lifetime.start.p0(i64 80, ptr nonnull %4) #5
  %8 = load i64, ptr %0, align 8, !tbaa !4
  %.not57 = icmp eq i64 %8, -1
  br i1 %.not57, label %._crit_edge61, label %.lr.ph60

.lr.ph60:                                         ; preds = %7, %29
  %9 = phi i64 [ %32, %29 ], [ %8, %7 ]
  %.03658 = phi i64 [ %30, %29 ], [ 0, %7 ]
  %10 = icmp eq i64 %.03658, 4
  br i1 %10, label %.lr.ph65.preheader, label %11

11:                                               ; preds = %.lr.ph60
  %12 = getelementptr inbounds nuw [5 x %struct.lzma_filter], ptr %4, i64 0, i64 %.03658
  store i64 %9, ptr %12, align 16, !tbaa !4
  %13 = getelementptr inbounds nuw %struct.lzma_filter, ptr %0, i64 %.03658, i32 1
  %14 = load ptr, ptr %13, align 8, !tbaa !10
  %15 = icmp eq ptr %14, null
  br i1 %15, label %16, label %.preheader

.preheader:                                       ; preds = %11
  %.not4655 = icmp eq i64 %9, 4611686018427387905
  br i1 %.not4655, label %._crit_edge, label %.lr.ph

16:                                               ; preds = %11
  %17 = getelementptr inbounds nuw i8, ptr %12, i64 8
  store ptr null, ptr %17, align 8, !tbaa !10
  br label %29

18:                                               ; preds = %.lr.ph
  %19 = add nuw nsw i64 %.03556, 1
  %20 = getelementptr inbounds nuw [11 x %struct.anon], ptr @features, i64 0, i64 %19
  %21 = load i64, ptr %20, align 8, !tbaa !11
  %.not46 = icmp eq i64 %9, %21
  br i1 %.not46, label %._crit_edge, label %.lr.ph, !llvm.loop !14

.lr.ph:                                           ; preds = %.preheader, %18
  %.03556 = phi i64 [ %19, %18 ], [ 0, %.preheader ]
  %exitcond = icmp eq i64 %.03556, 10
  br i1 %exitcond, label %.thread, label %18

._crit_edge:                                      ; preds = %18, %.preheader
  %.lcssa = phi ptr [ @features, %.preheader ], [ %20, %18 ]
  %22 = getelementptr inbounds nuw i8, ptr %.lcssa, i64 8
  %23 = load i64, ptr %22, align 8, !tbaa !16
  %24 = tail call ptr @lzma_alloc(i64 noundef %23, ptr noundef %2) #5
  %25 = getelementptr inbounds nuw i8, ptr %12, i64 8
  store ptr %24, ptr %25, align 8, !tbaa !10
  %26 = icmp eq ptr %24, null
  br i1 %26, label %.thread, label %27

27:                                               ; preds = %._crit_edge
  %28 = load ptr, ptr %13, align 8, !tbaa !10
  tail call void @llvm.memcpy.p0.p0.i64(ptr nonnull align 1 %24, ptr align 1 %28, i64 %23, i1 false)
  br label %29

29:                                               ; preds = %27, %16
  %30 = add nuw nsw i64 %.03658, 1
  %31 = getelementptr inbounds nuw %struct.lzma_filter, ptr %0, i64 %30
  %32 = load i64, ptr %31, align 8, !tbaa !4
  %.not = icmp eq i64 %32, -1
  br i1 %.not, label %._crit_edge61, label %.lr.ph60, !llvm.loop !17

._crit_edge61:                                    ; preds = %29, %7
  %.036.lcssa = phi i64 [ 0, %7 ], [ %30, %29 ]
  %33 = getelementptr inbounds nuw [5 x %struct.lzma_filter], ptr %4, i64 0, i64 %.036.lcssa
  store i64 -1, ptr %33, align 16, !tbaa !4
  %34 = getelementptr inbounds nuw i8, ptr %33, i64 8
  store ptr null, ptr %34, align 8, !tbaa !10
  %35 = shl i64 %.036.lcssa, 4
  %36 = add i64 %35, 16
  call void @llvm.memcpy.p0.p0.i64(ptr align 8 %1, ptr nonnull align 16 %4, i64 %36, i1 false)
  br label %.loopexit

.thread:                                          ; preds = %._crit_edge, %.lr.ph
  %.138 = phi i32 [ 8, %.lr.ph ], [ 5, %._crit_edge ]
  %.not4763 = icmp eq i64 %.03658, 0
  br i1 %.not4763, label %.loopexit, label %.lr.ph65.preheader

.lr.ph65.preheader:                               ; preds = %.lr.ph60, %.thread
  %.13876 = phi i32 [ %.138, %.thread ], [ 8, %.lr.ph60 ]
  %.036587075 = phi i64 [ %.03658, %.thread ], [ 4, %.lr.ph60 ]
  br label %.lr.ph65

.lr.ph65:                                         ; preds = %.lr.ph65.preheader, %.lr.ph65
  %.164 = phi i64 [ %37, %.lr.ph65 ], [ %.036587075, %.lr.ph65.preheader ]
  %37 = add nsw i64 %.164, -1
  %38 = getelementptr inbounds nuw [5 x %struct.lzma_filter], ptr %4, i64 0, i64 %37, i32 1
  %39 = load ptr, ptr %38, align 8, !tbaa !10
  tail call void @lzma_free(ptr noundef %39, ptr noundef %2) #5
  %.not47 = icmp eq i64 %37, 0
  br i1 %.not47, label %.loopexit, label %.lr.ph65, !llvm.loop !18

.loopexit:                                        ; preds = %.lr.ph65, %.thread, %._crit_edge61
  %.140 = phi i32 [ 0, %._crit_edge61 ], [ %.138, %.thread ], [ %.13876, %.lr.ph65 ]
  call void @llvm.lifetime.end.p0(i64 80, ptr nonnull %4) #5
  br label %40

40:                                               ; preds = %3, %.loopexit
  %.039 = phi i32 [ %.140, %.loopexit ], [ 11, %3 ]
  ret i32 %.039
}